#include <math.h>
#include <stdio.h>
#include <stdlib.h>
#include <string.h>

int main()
{
	int n;
	scanf("%d",&n);
	int shu[300];
	int i;
	double a=0.0;
	for(i=0;i<n;i++)
	{
		scanf("%d",&shu[i]);
		a=a+(double)shu[i]/n;
	}
	int j,t;
	for(i=0;i<n;i++)
	{
		for(j=n-1;j>i;j--)
		{
			if(shu[j]<shu[j-1])
			{
				t=shu[j-1];
				shu[j-1]=shu[j];
				shu[j]=t;
			}
		}
	}
	if(a-shu[0]>shu[n-1]-a)
		printf("%d",shu[0]);
	else if(a-shu[0]<shu[n-1]-a)
		printf("%d",shu[n-1]);
	else
		printf("%d,%d\n",shu[0],shu[n-1]);
	return 0;
}
